(lp0
(lp1
I39
aa(lp2
I3
aI21
aa(lp3
I90
aI37
aI27
aa(lp4
I34
aI45
aI46
aI80
aa(lp5
I16
aI78
aI9
aI11
aI65
aa(lp6
I59
aI78
aI46
aI3
aI66
aI18
aa(lp7
I89
aI61
aI67
aI41
aI60
aI55
aI63
aa(lp8
I61
aI8
aI85
aI31
aI69
aI83
aI71
aI35
aa(lp9
I66
aI5
aI62
aI81
aI60
aI3
aI10
aI22
aI92
aa(lp10
I94
aI10
aI99
aI38
aI21
aI87
aI60
aI39
aI79
aI74
aa(lp11
I43
aI27
aI73
aI40
aI11
aI36
aI25
aI61
aI27
aI10
aI14
aa(lp12
I97
aI17
aI50
aI91
aI55
aI14
aI82
aI67
aI97
aI64
aI30
aI74
aa(lp13
I73
aI98
aI21
aI61
aI7
aI94
aI23
aI91
aI46
aI58
aI5
aI53
aI46
aa(lp14
I99
aI87
aI0
aI55
aI12
aI46
aI33
aI24
aI15
aI50
aI93
aI4
aI36
aI19
aa(lp15
I1
aI83
aI73
aI11
aI90
aI78
aI12
aI49
aI83
aI46
aI85
aI18
aI78
aI94
aI21
aa(lp16
I12
aI49
aI44
aI81
aI9
aI52
aI44
aI85
aI88
aI35
aI29
aI42
aI31
aI21
aI54
aI92
aa(lp17
I39
aI61
aI32
aI1
aI67
aI69
aI14
aI3
aI25
aI31
aI54
aI30
aI25
aI51
aI43
aI16
aI95
aa(lp18
I89
aI67
aI67
aI16
aI72
aI68
aI30
aI16
aI1
aI91
aI44
aI92
aI93
aI64
aI39
aI76
aI97
aI47
aa(lp19
I56
aI95
aI24
aI17
aI24
aI11
aI91
aI62
aI48
aI80
aI10
aI86
aI99
aI57
aI55
aI95
aI44
aI51
aI8
aa(lp20
I20
aI78
aI23
aI79
aI41
aI36
aI92
aI27
aI84
aI13
aI79
aI10
aI43
aI83
aI21
aI95
aI20
aI17
aI98
aI13
aa(lp21
I85
aI79
aI91
aI79
aI14
aI12
aI13
aI2
aI1
aI24
aI80
aI69
aI59
aI55
aI15
aI70
aI66
aI61
aI66
aI76
aI30
aa(lp22
I15
aI4
aI26
aI18
aI85
aI17
aI4
aI35
aI4
aI21
aI11
aI32
aI93
aI57
aI44
aI62
aI5
aI51
aI14
aI67
aI83
aI68
aa(lp23
I46
aI78
aI16
aI40
aI2
aI13
aI76
aI24
aI91
aI13
aI95
aI54
aI47
aI39
aI10
aI51
aI74
aI84
aI44
aI72
aI63
aI61
aI4
aa(lp24
I32
aI57
aI57
aI38
aI82
aI76
aI3
aI15
aI7
aI98
aI62
aI83
aI92
aI36
aI8
aI76
aI49
aI55
aI35
aI67
aI84
aI8
aI48
aI85
aa(lp25
I6
aI39
aI46
aI90
aI46
aI59
aI44
aI73
aI83
aI35
aI30
aI75
aI79
aI27
aI3
aI32
aI68
aI37
aI56
aI90
aI87
aI43
aI11
aI25
aI94
aa(lp26
I54
aI35
aI81
aI38
aI65
aI69
aI13
aI66
aI76
aI78
aI32
aI22
aI54
aI76
aI47
aI18
aI15
aI6
aI24
aI31
aI38
aI19
aI87
aI45
aI52
aI37
aa(lp27
I78
aI52
aI39
aI44
aI80
aI38
aI48
aI35
aI47
aI26
aI92
aI18
aI18
aI31
aI47
aI66
aI11
aI30
aI74
aI27
aI72
aI22
aI47
aI42
aI36
aI54
aI55
aa(lp28
I56
aI32
aI95
aI32
aI14
aI74
aI98
aI47
aI23
aI11
aI36
aI63
aI77
aI45
aI62
aI53
aI20
aI97
aI28
aI57
aI10
aI21
aI81
aI34
aI55
aI77
aI12
aI72
aa(lp29
I60
aI59
aI26
aI14
aI56
aI54
aI59
aI62
aI80
aI36
aI73
aI25
aI55
aI99
aI53
aI22
aI59
aI17
aI1
aI14
aI30
aI77
aI68
aI20
aI3
aI75
aI98
aI37
aI46
aa(lp30
I39
aI89
aI8
aI9
aI9
aI90
aI28
aI6
aI64
aI76
aI38
aI40
aI43
aI34
aI76
aI24
aI22
aI30
aI60
aI30
aI9
aI22
aI53
aI20
aI58
aI38
aI61
aI68
aI2
aI5
aa.