(lp0
(lp1
I55
aa(lp2
I35
aI25
aa(lp3
I21
aI10
aI62
aa(lp4
I50
aI32
aI57
aI49
aa(lp5
I26
aI75
aI81
aI83
aI60
aa(lp6
I1
aI13
aI50
aI50
aI90
aI38
aa(lp7
I85
aI2
aI78
aI90
aI13
aI23
aI41
aa(lp8
I60
aI97
aI84
aI77
aI65
aI99
aI48
aI26
aa(lp9
I69
aI84
aI76
aI82
aI97
aI3
aI37
aI8
aI4
aa(lp10
I38
aI31
aI93
aI36
aI88
aI74
aI96
aI15
aI17
aI59
aa(lp11
I95
aI26
aI26
aI70
aI60
aI9
aI30
aI74
aI49
aI89
aI63
aa(lp12
I97
aI26
aI63
aI24
aI42
aI11
aI79
aI57
aI87
aI70
aI74
aI66
aa(lp13
I52
aI44
aI88
aI85
aI88
aI84
aI6
aI30
aI18
aI25
aI10
aI91
aI80
aa(lp14
I70
aI16
aI35
aI56
aI5
aI6
aI91
aI58
aI88
aI17
aI81
aI29
aI14
aI56
aa(lp15
I91
aI60
aI57
aI25
aI87
aI89
aI76
aI73
aI72
aI46
aI72
aI50
aI50
aI6
aI37
aa(lp16
I77
aI26
aI65
aI36
aI64
aI83
aI59
aI50
aI26
aI54
aI42
aI48
aI15
aI74
aI82
aI52
aa(lp17
I57
aI5
aI24
aI1
aI69
aI79
aI22
aI83
aI11
aI87
aI43
aI33
aI76
aI71
aI42
aI92
aI15
aa(lp18
I51
aI45
aI69
aI67
aI75
aI56
aI60
aI90
aI30
aI41
aI74
aI57
aI8
aI72
aI85
aI16
aI11
aI3
aa(lp19
I28
aI64
aI43
aI94
aI39
aI34
aI79
aI17
aI27
aI99
aI81
aI12
aI13
aI35
aI44
aI95
aI0
aI0
aI16
aa(lp20
I37
aI32
aI29
aI92
aI64
aI10
aI12
aI39
aI81
aI92
aI64
aI77
aI39
aI96
aI71
aI23
aI92
aI92
aI90
aI93
aa(lp21
I60
aI45
aI72
aI7
aI63
aI29
aI96
aI20
aI86
aI51
aI46
aI7
aI9
aI2
aI21
aI42
aI33
aI59
aI75
aI13
aI51
aa(lp22
I15
aI71
aI99
aI41
aI63
aI48
aI69
aI28
aI25
aI16
aI85
aI36
aI51
aI44
aI29
aI23
aI78
aI37
aI59
aI67
aI54
aI37
aa(lp23
I47
aI40
aI30
aI66
aI69
aI31
aI60
aI56
aI50
aI63
aI39
aI51
aI86
aI91
aI2
aI94
aI96
aI47
aI89
aI76
aI67
aI94
aI84
aa(lp24
I63
aI31
aI32
aI42
aI29
aI82
aI33
aI8
aI72
aI92
aI56
aI85
aI34
aI5
aI44
aI78
aI55
aI72
aI35
aI68
aI76
aI59
aI30
aI54
aa(lp25
I57
aI61
aI91
aI70
aI87
aI3
aI89
aI56
aI33
aI41
aI71
aI73
aI47
aI41
aI49
aI74
aI21
aI13
aI85
aI80
aI0
aI61
aI47
aI9
aI36
aa(lp26
I84
aI24
aI99
aI0
aI28
aI28
aI89
aI68
aI52
aI98
aI69
aI54
aI55
aI37
aI97
aI15
aI19
aI55
aI42
aI77
aI32
aI98
aI88
aI82
aI86
aI29
aa(lp27
I12
aI84
aI20
aI79
aI68
aI4
aI45
aI99
aI11
aI62
aI37
aI14
aI46
aI17
aI69
aI17
aI61
aI77
aI81
aI86
aI44
aI23
aI22
aI79
aI11
aI92
aI39
aa(lp28
I88
aI46
aI48
aI50
aI9
aI60
aI20
aI54
aI14
aI47
aI53
aI45
aI78
aI56
aI92
aI63
aI87
aI96
aI45
aI49
aI24
aI85
aI11
aI46
aI33
aI35
aI35
aI95
aa(lp29
I55
aI40
aI46
aI94
aI42
aI64
aI6
aI39
aI80
aI3
aI5
aI74
aI65
aI86
aI87
aI52
aI66
aI35
aI99
aI34
aI45
aI11
aI30
aI35
aI52
aI42
aI32
aI45
aI13
aa(lp30
I85
aI92
aI77
aI57
aI64
aI60
aI90
aI93
aI75
aI23
aI11
aI32
aI94
aI64
aI3
aI23
aI92
aI6
aI54
aI71
aI15
aI69
aI50
aI12
aI81
aI75
aI58
aI55
aI43
aI23
aa(lp31
I67
aI72
aI37
aI99
aI24
aI82
aI96
aI78
aI54
aI11
aI97
aI65
aI92
aI27
aI75
aI88
aI43
aI80
aI12
aI18
aI42
aI39
aI97
aI92
aI63
aI0
aI5
aI40
aI30
aI70
aI97
aa(lp32
I48
aI55
aI15
aI80
aI22
aI50
aI12
aI72
aI79
aI18
aI1
aI4
aI70
aI2
aI26
aI30
aI98
aI22
aI79
aI60
aI85
aI63
aI13
aI72
aI63
aI75
aI97
aI91
aI53
aI62
aI49
aI11
aa(lp33
I75
aI67
aI26
aI79
aI76
aI60
aI79
aI78
aI71
aI34
aI55
aI11
aI88
aI60
aI26
aI29
aI15
aI79
aI2
aI91
aI76
aI63
aI40
aI72
aI26
aI78
aI54
aI53
aI56
aI32
aI91
aI45
aI18
aa(lp34
I71
aI83
aI82
aI99
aI9
aI49
aI56
aI67
aI57
aI65
aI37
aI66
aI21
aI81
aI20
aI90
aI40
aI13
aI74
aI37
aI76
aI32
aI30
aI87
aI15
aI32
aI87
aI47
aI61
aI37
aI61
aI8
aI66
aI67
aa(lp35
I44
aI80
aI11
aI14
aI92
aI50
aI12
aI2
aI15
aI17
aI31
aI41
aI58
aI1
aI69
aI94
aI89
aI25
aI85
aI53
aI46
aI63
aI81
aI5
aI95
aI17
aI76
aI51
aI14
aI57
aI44
aI72
aI17
aI22
aI16
aa(lp36
I30
aI56
aI19
aI71
aI36
aI79
aI28
aI84
aI77
aI8
aI31
aI69
aI22
aI70
aI55
aI4
aI1
aI14
aI99
aI57
aI72
aI21
aI36
aI69
aI6
aI77
aI89
aI34
aI50
aI86
aI52
aI48
aI20
aI64
aI49
aI69
aa(lp37
I82
aI9
aI63
aI72
aI43
aI41
aI20
aI56
aI14
aI37
aI56
aI6
aI64
aI71
aI88
aI71
aI17
aI6
aI53
aI78
aI9
aI59
aI82
aI37
aI79
aI73
aI0
aI83
aI57
aI39
aI71
aI99
aI72
aI53
aI38
aI90
aI49
aa(lp38
I38
aI22
aI28
aI6
aI88
aI21
aI27
aI50
aI54
aI80
aI5
aI59
aI9
aI93
aI70
aI8
aI33
aI32
aI67
aI51
aI55
aI45
aI86
aI50
aI2
aI56
aI78
aI18
aI39
aI94
aI73
aI81
aI58
aI7
aI38
aI53
aI57
aI35
aa(lp39
I10
aI30
aI59
aI62
aI75
aI48
aI57
aI41
aI86
aI45
aI83
aI62
aI21
aI25
aI78
aI63
aI67
aI90
aI3
aI63
aI92
aI23
aI6
aI67
aI22
aI88
aI51
aI26
aI22
aI77
aI69
aI58
aI87
aI79
aI64
aI81
aI75
aI67
aI28
aa(lp40
I37
aI26
aI65
aI58
aI83
aI34
aI3
aI0
aI18
aI82
aI3
aI1
aI40
aI72
aI95
aI51
aI10
aI98
aI30
aI7
aI1
aI51
aI21
aI84
aI97
aI40
aI33
aI68
aI38
aI0
aI8
aI10
aI47
aI25
aI84
aI99
aI34
aI98
aI27
aI37
aa.