(lp0
(lp1
I48
aa(lp2
I10
aI23
aa(lp3
I15
aI53
aI21
aa(lp4
I62
aI1
aI40
aI79
aa(lp5
I57
aI9
aI99
aI40
aI60
aa(lp6
I58
aI8
aI64
aI96
aI75
aI2
aa(lp7
I82
aI48
aI54
aI2
aI99
aI45
aI1
aa(lp8
I86
aI65
aI74
aI93
aI69
aI36
aI79
aI54
aa(lp9
I26
aI67
aI43
aI82
aI29
aI42
aI40
aI73
aI64
aa(lp10
I98
aI70
aI57
aI97
aI92
aI9
aI9
aI62
aI1
aI5
aa(lp11
I82
aI53
aI39
aI37
aI63
aI60
aI50
aI84
aI22
aI71
aI41
aa(lp12
I32
aI8
aI79
aI7
aI55
aI0
aI87
aI16
aI74
aI33
aI50
aI21
aa(lp13
I39
aI46
aI35
aI60
aI5
aI34
aI6
aI69
aI47
aI22
aI59
aI66
aI12
aa(lp14
I35
aI8
aI18
aI45
aI51
aI89
aI12
aI84
aI96
aI17
aI10
aI86
aI60
aI27
aa(lp15
I10
aI68
aI97
aI86
aI36
aI7
aI57
aI25
aI17
aI14
aI93
aI6
aI72
aI8
aI52
aa(lp16
I83
aI50
aI25
aI92
aI50
aI48
aI75
aI54
aI65
aI36
aI91
aI58
aI42
aI10
aI51
aI2
aa(lp17
I83
aI10
aI78
aI71
aI84
aI99
aI99
aI83
aI41
aI10
aI26
aI35
aI63
aI0
aI86
aI64
aI55
aa(lp18
I17
aI36
aI61
aI10
aI43
aI70
aI24
aI85
aI27
aI53
aI3
aI58
aI85
aI27
aI1
aI88
aI62
aI47
aa(lp19
I73
aI99
aI53
aI35
aI3
aI91
aI63
aI79
aI34
aI99
aI16
aI23
aI55
aI17
aI9
aI21
aI12
aI33
aI29
aa(lp20
I53
aI22
aI28
aI26
aI98
aI78
aI50
aI31
aI87
aI51
aI51
aI68
aI87
aI13
aI93
aI82
aI33
aI71
aI72
aI73
aa.