(lp0
(lp1
I31
aa(lp2
I23
aI2
aa(lp3
I57
aI12
aI25
aa(lp4
I64
aI52
aI16
aI58
aa(lp5
I80
aI32
aI12
aI47
aI42
aa(lp6
I59
aI64
aI91
aI23
aI30
aI60
aa(lp7
I49
aI34
aI52
aI38
aI95
aI84
aI29
aa(lp8
I7
aI31
aI5
aI34
aI39
aI46
aI16
aI45
aa(lp9
I61
aI5
aI69
aI86
aI46
aI42
aI99
aI57
aI54
aa(lp10
I57
aI69
aI38
aI45
aI26
aI93
aI94
aI74
aI39
aI23
aa(lp11
I75
aI9
aI88
aI54
aI17
aI79
aI40
aI64
aI36
aI32
aI35
aa(lp12
I46
aI56
aI15
aI60
aI70
aI57
aI8
aI66
aI18
aI77
aI49
aI40
aa(lp13
I65
aI11
aI31
aI57
aI69
aI17
aI3
aI68
aI23
aI52
aI94
aI92
aI43
aa(lp14
I65
aI61
aI30
aI76
aI79
aI80
aI31
aI63
aI43
aI28
aI74
aI88
aI72
aI10
aa(lp15
I96
aI19
aI4
aI3
aI99
aI85
aI67
aI70
aI12
aI71
aI36
aI0
aI18
aI47
aI53
aa(lp16
I56
aI68
aI16
aI4
aI21
aI62
aI23
aI13
aI73
aI4
aI91
aI78
aI65
aI92
aI92
aI78
aa(lp17
I95
aI85
aI57
aI94
aI82
aI46
aI40
aI29
aI11
aI76
aI18
aI18
aI37
aI65
aI90
aI11
aI46
aa(lp18
I74
aI46
aI2
aI54
aI90
aI26
aI86
aI27
aI58
aI18
aI11
aI90
aI43
aI15
aI51
aI71
aI6
aI16
aa(lp19
I48
aI28
aI46
aI11
aI33
aI19
aI42
aI20
aI47
aI0
aI32
aI17
aI68
aI15
aI11
aI83
aI81
aI7
aI77
aa(lp20
I46
aI45
aI89
aI19
aI28
aI52
aI36
aI6
aI28
aI82
aI76
aI79
aI48
aI17
aI5
aI69
aI8
aI63
aI73
aI77
aa(lp21
I53
aI10
aI50
aI97
aI19
aI16
aI15
aI83
aI10
aI61
aI2
aI2
aI22
aI37
aI78
aI12
aI32
aI6
aI95
aI35
aI72
aa(lp22
I23
aI64
aI5
aI10
aI68
aI11
aI43
aI75
aI67
aI13
aI76
aI60
aI93
aI40
aI24
aI13
aI98
aI90
aI81
aI51
aI52
aI25
aa(lp23
I72
aI54
aI25
aI60
aI42
aI64
aI37
aI91
aI95
aI29
aI21
aI25
aI52
aI54
aI71
aI31
aI80
aI2
aI62
aI42
aI2
aI2
aI5
aa(lp24
I31
aI37
aI73
aI31
aI32
aI25
aI51
aI38
aI21
aI21
aI7
aI5
aI1
aI79
aI54
aI64
aI67
aI99
aI79
aI19
aI0
aI75
aI46
aI86
aa(lp25
I64
aI89
aI87
aI55
aI55
aI3
aI70
aI5
aI48
aI89
aI93
aI6
aI89
aI35
aI92
aI7
aI65
aI34
aI61
aI87
aI47
aI45
aI60
aI7
aI5
aa(lp26
I87
aI49
aI21
aI38
aI93
aI40
aI55
aI3
aI33
aI56
aI10
aI65
aI31
aI20
aI9
aI5
aI46
aI32
aI18
aI70
aI81
aI81
aI78
aI96
aI24
aI34
aa(lp27
I71
aI1
aI11
aI23
aI23
aI19
aI65
aI70
aI94
aI59
aI29
aI77
aI55
aI86
aI16
aI48
aI9
aI43
aI38
aI40
aI38
aI61
aI48
aI83
aI32
aI97
aI46
aa(lp28
I99
aI0
aI59
aI98
aI48
aI31
aI47
aI98
aI36
aI64
aI72
aI1
aI84
aI80
aI24
aI35
aI61
aI0
aI18
aI17
aI96
aI70
aI27
aI29
aI2
aI60
aI76
aI14
aa(lp29
I77
aI96
aI33
aI32
aI11
aI64
aI78
aI22
aI90
aI30
aI23
aI24
aI22
aI89
aI74
aI26
aI84
aI8
aI38
aI2
aI51
aI14
aI33
aI0
aI41
aI81
aI28
aI91
aI72
aa(lp30
I4
aI16
aI63
aI58
aI6
aI24
aI0
aI43
aI22
aI14
aI24
aI63
aI75
aI60
aI31
aI82
aI66
aI75
aI44
aI71
aI12
aI59
aI77
aI55
aI63
aI47
aI41
aI48
aI73
aI70
aa(lp31
I92
aI7
aI3
aI6
aI85
aI56
aI4
aI1
aI1
aI58
aI99
aI58
aI2
aI4
aI44
aI69
aI65
aI84
aI28
aI65
aI55
aI17
aI35
aI57
aI43
aI9
aI40
aI50
aI40
aI77
aI16
aa(lp32
I4
aI73
aI66
aI38
aI57
aI72
aI19
aI5
aI78
aI54
aI70
aI6
aI50
aI45
aI15
aI84
aI61
aI16
aI56
aI69
aI5
aI29
aI71
aI43
aI24
aI58
aI66
aI95
aI38
aI0
aI42
aI53
aa(lp33
I38
aI27
aI98
aI49
aI30
aI96
aI72
aI70
aI61
aI44
aI36
aI67
aI76
aI68
aI89
aI78
aI57
aI43
aI4
aI36
aI88
aI65
aI84
aI12
aI97
aI44
aI1
aI24
aI0
aI55
aI36
aI64
aI58
aa(lp34
I11
aI35
aI83
aI47
aI40
aI54
aI42
aI71
aI92
aI45
aI72
aI73
aI35
aI94
aI69
aI72
aI1
aI31
aI88
aI58
aI50
aI99
aI12
aI29
aI18
aI94
aI13
aI1
aI27
aI50
aI81
aI91
aI61
aI89
aa(lp35
I83
aI74
aI29
aI49
aI87
aI99
aI17
aI81
aI90
aI71
aI4
aI81
aI30
aI72
aI42
aI10
aI42
aI14
aI94
aI11
aI35
aI32
aI93
aI15
aI64
aI4
aI3
aI7
aI64
aI93
aI47
aI66
aI26
aI91
aI3
aa(lp36
I27
aI66
aI86
aI12
aI56
aI17
aI30
aI89
aI19
aI31
aI50
aI78
aI56
aI82
aI37
aI27
aI7
aI0
aI87
aI69
aI43
aI78
aI11
aI90
aI1
aI40
aI20
aI73
aI18
aI78
aI41
aI55
aI68
aI22
aI46
aI8
aa(lp37
I18
aI58
aI78
aI92
aI69
aI96
aI6
aI44
aI68
aI63
aI39
aI22
aI65
aI96
aI65
aI70
aI75
aI89
aI8
aI5
aI70
aI0
aI24
aI11
aI92
aI43
aI48
aI15
aI60
aI10
aI44
aI31
aI90
aI43
aI59
aI12
aI82
aa(lp38
I82
aI2
aI84
aI4
aI29
aI87
aI41
aI58
aI98
aI19
aI0
aI14
aI51
aI87
aI65
aI1
aI91
aI63
aI9
aI70
aI15
aI35
aI0
aI43
aI78
aI11
aI81
aI68
aI11
aI41
aI90
aI10
aI2
aI52
aI24
aI72
aI65
aI15
aa(lp39
I7
aI55
aI93
aI1
aI81
aI96
aI85
aI7
aI0
aI19
aI41
aI59
aI86
aI66
aI61
aI23
aI24
aI76
aI38
aI92
aI34
aI86
aI91
aI73
aI31
aI41
aI61
aI19
aI27
aI69
aI21
aI31
aI2
aI10
aI78
aI81
aI15
aI75
aI12
aa(lp40
I3
aI55
aI21
aI72
aI46
aI39
aI69
aI44
aI53
aI90
aI17
aI46
aI89
aI9
aI79
aI15
aI69
aI4
aI72
aI50
aI16
aI71
aI57
aI78
aI65
aI94
aI94
aI51
aI64
aI8
aI1
aI59
aI92
aI27
aI34
aI92
aI1
aI66
aI87
aI71
aa(lp41
I72
aI28
aI59
aI11
aI64
aI29
aI76
aI41
aI20
aI66
aI25
aI38
aI14
aI29
aI53
aI13
aI56
aI31
aI81
aI83
aI33
aI29
aI12
aI42
aI55
aI19
aI63
aI33
aI60
aI10
aI31
aI20
aI19
aI33
aI49
aI80
aI51
aI74
aI89
aI86
aI5
aa(lp42
I71
aI13
aI74
aI67
aI26
aI84
aI70
aI10
aI72
aI41
aI19
aI39
aI92
aI80
aI97
aI40
aI92
aI9
aI75
aI58
aI56
aI39
aI4
aI50
aI51
aI52
aI47
aI22
aI73
aI73
aI49
aI86
aI36
aI8
aI60
aI98
aI75
aI7
aI73
aI12
aI31
aI26
aa(lp43
I47
aI77
aI93
aI18
aI33
aI11
aI63
aI68
aI56
aI30
aI82
aI65
aI5
aI74
aI78
aI65
aI2
aI69
aI26
aI95
aI86
aI31
aI37
aI60
aI20
aI87
aI10
aI35
aI13
aI78
aI60
aI76
aI60
aI67
aI1
aI96
aI39
aI34
aI45
aI30
aI82
aI2
aI13
aa(lp44
I48
aI63
aI38
aI70
aI28
aI70
aI71
aI31
aI66
aI0
aI64
aI3
aI72
aI86
aI21
aI32
aI15
aI41
aI7
aI97
aI68
aI21
aI21
aI98
aI51
aI21
aI31
aI56
aI65
aI41
aI49
aI64
aI59
aI8
aI44
aI77
aI62
aI69
aI10
aI17
aI4
aI73
aI3
aI21
aa(lp45
I17
aI44
aI39
aI90
aI11
aI54
aI95
aI72
aI35
aI10
aI65
aI22
aI7
aI12
aI84
aI17
aI43
aI46
aI41
aI90
aI2
aI27
aI6
aI83
aI71
aI5
aI98
aI89
aI77
aI26
aI39
aI48
aI86
aI28
aI25
aI7
aI26
aI92
aI61
aI82
aI99
aI64
aI67
aI24
aI99
aa(lp46
I64
aI44
aI67
aI4
aI33
aI86
aI75
aI53
aI64
aI11
aI62
aI89
aI22
aI79
aI98
aI57
aI19
aI57
aI65
aI87
aI78
aI24
aI55
aI68
aI37
aI7
aI54
aI93
aI60
aI33
aI49
aI22
aI51
aI34
aI43
aI1
aI25
aI47
aI60
aI54
aI83
aI99
aI65
aI64
aI73
aI39
aa(lp47
I77
aI85
aI98
aI70
aI63
aI17
aI21
aI88
aI58
aI44
aI52
aI40
aI13
aI75
aI58
aI63
aI27
aI91
aI82
aI29
aI9
aI99
aI36
aI80
aI67
aI28
aI29
aI80
aI16
aI62
aI46
aI39
aI60
aI33
aI4
aI82
aI9
aI67
aI76
aI99
aI49
aI66
aI35
aI63
aI7
aI76
aI90
aa(lp48
I25
aI35
aI21
aI49
aI65
aI79
aI39
aI55
aI40
aI65
aI90
aI62
aI51
aI56
aI37
aI17
aI92
aI42
aI68
aI30
aI52
aI54
aI13
aI9
aI44
aI86
aI69
aI68
aI82
aI1
aI40
aI35
aI90
aI18
aI71
aI52
aI57
aI65
aI25
aI91
aI48
aI5
aI74
aI38
aI9
aI0
aI17
aI70
aa(lp49
I45
aI96
aI59
aI25
aI24
aI6
aI64
aI69
aI85
aI53
aI63
aI64
aI48
aI25
aI15
aI45
aI86
aI57
aI60
aI40
aI26
aI29
aI2
aI33
aI99
aI13
aI12
aI10
aI75
aI1
aI62
aI54
aI74
aI12
aI74
aI74
aI40
aI91
aI45
aI21
aI95
aI23
aI68
aI11
aI6
aI72
aI59
aI79
aI35
aa(lp50
I49
aI74
aI80
aI43
aI79
aI56
aI20
aI25
aI58
aI46
aI16
aI40
aI58
aI71
aI74
aI20
aI72
aI68
aI23
aI39
aI68
aI69
aI85
aI26
aI7
aI3
aI49
aI41
aI24
aI96
aI12
aI63
aI0
aI37
aI52
aI72
aI64
aI19
aI71
aI91
aI56
aI15
aI2
aI59
aI29
aI56
aI45
aI86
aI32
aI59
aa(lp51
I19
aI90
aI43
aI89
aI9
aI4
aI76
aI56
aI27
aI65
aI50
aI97
aI98
aI77
aI93
aI49
aI73
aI17
aI83
aI67
aI19
aI81
aI32
aI97
aI7
aI10
aI49
aI62
aI69
aI23
aI73
aI13
aI2
aI52
aI36
aI95
aI65
aI8
aI69
aI96
aI78
aI56
aI13
aI62
aI4
aI34
aI89
aI56
aI76
aI75
aI61
aa(lp52
I31
aI89
aI23
aI39
aI69
aI76
aI65
aI64
aI31
aI86
aI6
aI43
aI33
aI22
aI16
aI50
aI87
aI83
aI71
aI36
aI15
aI17
aI87
aI34
aI19
aI82
aI62
aI96
aI57
aI59
aI88
aI15
aI57
aI61
aI34
aI54
aI46
aI6
aI30
aI76
aI25
aI70
aI60
aI0
aI50
aI94
aI16
aI5
aI70
aI84
aI14
aI96
aa(lp53
I59
aI4
aI70
aI72
aI7
aI44
aI19
aI62
aI81
aI18
aI1
aI54
aI42
aI17
aI46
aI87
aI35
aI33
aI3
aI91
aI54
aI65
aI21
aI98
aI29
aI35
aI0
aI62
aI60
aI11
aI84
aI22
aI94
aI2
aI57
aI12
aI80
aI70
aI77
aI99
aI27
aI23
aI81
aI32
aI49
aI26
aI52
aI72
aI31
aI59
aI36
aI91
aI48
aa(lp54
I14
aI7
aI76
aI5
aI32
aI54
aI15
aI9
aI84
aI82
aI18
aI56
aI79
aI18
aI47
aI23
aI67
aI64
aI67
aI70
aI8
aI36
aI98
aI10
aI69
aI48
aI84
aI60
aI58
aI71
aI76
aI58
aI33
aI71
aI51
aI35
aI80
aI91
aI24
aI72
aI5
aI73
aI84
aI81
aI35
aI36
aI50
aI26
aI34
aI14
aI25
aI86
aI48
aI46
aa(lp55
I94
aI3
aI67
aI95
aI68
aI6
aI88
aI20
aI69
aI80
aI1
aI19
aI10
aI22
aI73
aI33
aI88
aI18
aI90
aI58
aI0
aI21
aI99
aI72
aI57
aI54
aI89
aI39
aI50
aI77
aI92
aI52
aI2
aI37
aI57
aI88
aI90
aI37
aI70
aI54
aI37
aI61
aI99
aI10
aI62
aI34
aI62
aI99
aI22
aI66
aI42
aI73
aI59
aI52
aI40
aa(lp56
I48
aI50
aI0
aI77
aI75
aI34
aI87
aI11
aI26
aI16
aI17
aI92
aI71
aI3
aI7
aI8
aI66
aI64
aI84
aI51
aI12
aI23
aI73
aI18
aI11
aI99
aI2
aI84
aI20
aI69
aI68
aI36
aI6
aI8
aI62
aI16
aI25
aI11
aI42
aI2
aI85
aI42
aI88
aI26
aI87
aI4
aI95
aI50
aI60
aI21
aI30
aI33
aI14
aI74
aI55
aI96
aa(lp57
I15
aI76
aI33
aI0
aI5
aI72
aI64
aI37
aI60
aI47
aI46
aI81
aI88
aI38
aI20
aI62
aI51
aI95
aI11
aI54
aI14
aI78
aI1
aI75
aI99
aI42
aI40
aI63
aI82
aI62
aI64
aI83
aI4
aI1
aI9
aI32
aI17
aI65
aI11
aI63
aI33
aI39
aI26
aI28
aI56
aI41
aI1
aI53
aI66
aI34
aI30
aI67
aI5
aI0
aI28
aI9
aI45
aa(lp58
I71
aI61
aI71
aI93
aI36
aI16
aI17
aI32
aI38
aI94
aI57
aI20
aI79
aI0
aI27
aI7
aI67
aI76
aI82
aI94
aI8
aI80
aI80
aI75
aI47
aI38
aI28
aI3
aI9
aI23
aI15
aI33
aI40
aI38
aI42
aI54
aI42
aI42
aI14
aI23
aI22
aI84
aI23
aI50
aI90
aI38
aI59
aI53
aI0
aI45
aI7
aI82
aI82
aI67
aI66
aI19
aI71
aI62
aa(lp59
I25
aI84
aI88
aI63
aI38
aI90
aI83
aI56
aI28
aI23
aI26
aI62
aI94
aI57
aI68
aI51
aI18
aI74
aI98
aI43
aI24
aI60
aI44
aI80
aI56
aI9
aI55
aI91
aI30
aI86
aI22
aI23
aI51
aI25
aI38
aI69
aI93
aI14
aI86
aI0
aI43
aI50
aI37
aI55
aI51
aI38
aI89
aI37
aI87
aI45
aI70
aI49
aI30
aI18
aI34
aI48
aI99
aI51
aI49
aa(lp60
I99
aI19
aI1
aI83
aI88
aI80
aI69
aI95
aI66
aI23
aI89
aI8
aI93
aI15
aI31
aI49
aI8
aI68
aI36
aI15
aI27
aI89
aI87
aI6
aI23
aI95
aI14
aI83
aI4
aI15
aI19
aI26
aI15
aI12
aI20
aI88
aI96
aI93
aI44
aI12
aI2
aI2
aI29
aI96
aI33
aI61
aI90
aI79
aI25
aI23
aI50
aI79
aI62
aI32
aI78
aI67
aI19
aI5
aI97
aI72
aa(lp61
I37
aI5
aI52
aI67
aI23
aI39
aI42
aI83
aI44
aI70
aI11
aI99
aI73
aI19
aI21
aI22
aI32
aI91
aI46
aI50
aI1
aI36
aI90
aI64
aI7
aI96
aI2
aI55
aI56
aI79
aI32
aI10
aI17
aI95
aI23
aI7
aI71
aI4
aI2
aI83
aI81
aI48
aI4
aI99
aI80
aI42
aI74
aI75
aI59
aI86
aI50
aI1
aI15
aI78
aI69
aI21
aI50
aI58
aI84
aI26
aI58
aa(lp62
I24
aI74
aI13
aI72
aI9
aI55
aI58
aI60
aI6
aI2
aI38
aI61
aI5
aI9
aI3
aI60
aI87
aI59
aI65
aI91
aI78
aI6
aI52
aI28
aI64
aI20
aI33
aI85
aI23
aI80
aI61
aI96
aI11
aI47
aI5
aI85
aI66
aI82
aI71
aI49
aI75
aI94
aI91
aI4
aI21
aI6
aI72
aI32
aI40
aI14
aI72
aI83
aI57
aI93
aI99
aI58
aI88
aI29
aI31
aI41
aI43
aI87
aa(lp63
I84
aI90
aI96
aI17
aI79
aI37
aI18
aI8
aI67
aI15
aI18
aI44
aI5
aI88
aI68
aI31
aI36
aI95
aI30
aI56
aI91
aI36
aI89
aI51
aI9
aI48
aI98
aI51
aI66
aI12
aI23
aI33
aI41
aI17
aI99
aI46
aI46
aI61
aI38
aI75
aI71
aI32
aI88
aI3
aI12
aI54
aI14
aI95
aI95
aI59
aI35
aI31
aI16
aI84
aI58
aI47
aI20
aI8
aI21
aI1
aI21
aI32
aI97
aa(lp64
I30
aI49
aI95
aI46
aI4
aI34
aI90
aI32
aI34
aI79
aI61
aI63
aI48
aI11
aI30
aI12
aI75
aI64
aI11
aI66
aI48
aI27
aI78
aI40
aI99
aI82
aI18
aI82
aI57
aI71
aI28
aI42
aI32
aI4
aI67
aI66
aI80
aI47
aI8
aI51
aI22
aI31
aI11
aI66
aI2
aI45
aI55
aI67
aI81
aI36
aI77
aI73
aI31
aI59
aI86
aI41
aI8
aI83
aI97
aI37
aI79
aI37
aI78
aI79
aa(lp65
I44
aI46
aI22
aI27
aI55
aI9
aI89
aI10
aI77
aI22
aI88
aI9
aI0
aI21
aI34
aI44
aI0
aI95
aI57
aI27
aI78
aI50
aI45
aI94
aI2
aI66
aI87
aI51
aI42
aI0
aI93
aI67
aI36
aI2
aI33
aI93
aI80
aI94
aI36
aI3
aI81
aI41
aI23
aI88
aI36
aI43
aI55
aI2
aI89
aI65
aI81
aI41
aI73
aI50
aI64
aI12
aI79
aI30
aI73
aI93
aI94
aI55
aI95
aI75
aI27
aa(lp66
I13
aI27
aI42
aI54
aI69
aI58
aI19
aI68
aI10
aI98
aI43
aI16
aI91
aI98
aI88
aI7
aI5
aI34
aI75
aI70
aI44
aI23
aI29
aI15
aI53
aI19
aI96
aI35
aI99
aI66
aI30
aI26
aI19
aI84
aI71
aI2
aI39
aI55
aI73
aI55
aI17
aI19
aI68
aI88
aI59
aI34
aI35
aI87
aI72
aI30
aI61
aI85
aI53
aI99
aI92
aI73
aI48
aI35
aI57
aI88
aI97
aI9
aI73
aI11
aI95
aI56
aa(lp67
I92
aI34
aI26
aI9
aI74
aI28
aI25
aI78
aI2
aI4
aI98
aI24
aI99
aI41
aI34
aI3
aI15
aI53
aI45
aI6
aI37
aI82
aI56
aI72
aI45
aI12
aI84
aI70
aI98
aI41
aI58
aI40
aI52
aI76
aI32
aI55
aI24
aI26
aI14
aI57
aI1
aI92
aI14
aI92
aI44
aI46
aI6
aI61
aI64
aI47
aI82
aI94
aI38
aI83
aI67
aI80
aI12
aI95
aI51
aI62
aI88
aI14
aI3
aI18
aI30
aI97
aI19
aa(lp68
I8
aI50
aI38
aI14
aI10
aI8
aI21
aI86
aI92
aI38
aI17
aI53
aI81
aI37
aI74
aI84
aI74
aI60
aI85
aI85
aI14
aI25
aI0
aI15
aI16
aI58
aI45
aI19
aI17
aI16
aI54
aI72
aI47
aI3
aI87
aI48
aI87
aI16
aI88
aI30
aI80
aI10
aI49
aI70
aI90
aI16
aI63
aI15
aI48
aI37
aI12
aI32
aI89
aI0
aI9
aI7
aI57
aI44
aI20
aI85
aI58
aI19
aI5
aI78
aI48
aI96
aI62
aI62
aa(lp69
I11
aI6
aI34
aI53
aI3
aI31
aI51
aI51
aI11
aI97
aI95
aI91
aI74
aI73
aI49
aI16
aI68
aI89
aI22
aI1
aI76
aI30
aI2
aI5
aI50
aI72
aI93
aI20
aI23
aI81
aI46
aI3
aI55
aI35
aI76
aI1
aI12
aI44
aI68
aI28
aI84
aI19
aI90
aI57
aI40
aI87
aI20
aI96
aI75
aI81
aI95
aI66
aI1
aI5
aI72
aI14
aI35
aI28
aI99
aI36
aI22
aI49
aI71
aI38
aI24
aI31
aI90
aI32
aI60
aa(lp70
I92
aI49
aI57
aI92
aI57
aI47
aI79
aI47
aI5
aI55
aI12
aI33
aI19
aI63
aI16
aI2
aI36
aI86
aI38
aI88
aI9
aI62
aI29
aI15
aI60
aI44
aI6
aI71
aI15
aI57
aI5
aI60
aI44
aI7
aI53
aI61
aI2
aI25
aI26
aI60
aI92
aI85
aI9
aI12
aI22
aI63
aI54
aI99
aI16
aI81
aI84
aI57
aI53
aI90
aI54
aI12
aI57
aI76
aI88
aI26
aI33
aI63
aI35
aI84
aI33
aI1
aI94
aI17
aI73
aI89
aa(lp71
I72
aI75
aI2
aI79
aI48
aI90
aI36
aI25
aI54
aI17
aI93
aI10
aI33
aI48
aI5
aI25
aI44
aI87
aI31
aI69
aI12
aI78
aI37
aI57
aI50
aI26
aI68
aI28
aI2
aI99
aI54
aI44
aI8
aI25
aI45
aI36
aI11
aI52
aI36
aI8
aI42
aI57
aI12
aI48
aI13
aI27
aI34
aI15
aI32
aI99
aI59
aI25
aI79
aI20
aI18
aI73
aI96
aI16
aI26
aI25
aI54
aI86
aI37
aI44
aI41
aI67
aI6
aI4
aI29
aI3
aI84
aa(lp72
I2
aI23
aI27
aI34
aI65
aI66
aI15
aI77
aI74
aI81
aI87
aI81
aI73
aI37
aI0
aI49
aI53
aI69
aI40
aI41
aI1
aI80
aI58
aI6
aI68
aI57
aI11
aI29
aI52
aI56
aI74
aI71
aI0
aI91
aI41
aI33
aI79
aI80
aI52
aI49
aI3
aI70
aI29
aI90
aI11
aI16
aI66
aI0
aI74
aI17
aI85
aI51
aI98
aI66
aI0
aI26
aI93
aI90
aI70
aI36
aI89
aI48
aI42
aI77
aI58
aI50
aI67
aI64
aI71
aI7
aI61
aI89
aa(lp73
I12
aI78
aI55
aI86
aI10
aI86
aI52
aI21
aI93
aI69
aI57
aI20
aI34
aI55
aI11
aI70
aI5
aI29
aI66
aI46
aI96
aI64
aI56
aI69
aI28
aI19
aI8
aI89
aI9
aI22
aI15
aI54
aI50
aI35
aI73
aI85
aI41
aI34
aI39
aI54
aI96
aI45
aI76
aI65
aI30
aI14
aI74
aI28
aI44
aI51
aI59
aI45
aI42
aI96
aI10
aI73
aI94
aI79
aI88
aI43
aI52
aI86
aI85
aI17
aI77
aI23
aI7
aI96
aI23
aI14
aI51
aI68
aI63
aa(lp74
I26
aI43
aI46
aI18
aI11
aI53
aI7
aI38
aI6
aI54
aI29
aI62
aI93
aI2
aI66
aI24
aI25
aI23
aI64
aI77
aI20
aI51
aI40
aI61
aI72
aI10
aI79
aI31
aI37
aI2
aI6
aI58
aI57
aI29
aI86
aI82
aI80
aI41
aI38
aI86
aI96
aI52
aI98
aI87
aI3
aI28
aI90
aI95
aI67
aI3
aI38
aI90
aI24
aI92
aI33
aI51
aI57
aI56
aI25
aI98
aI91
aI66
aI43
aI2
aI36
aI21
aI32
aI44
aI62
aI13
aI39
aI3
aI2
aI69
aa(lp75
I19
aI20
aI40
aI57
aI43
aI38
aI17
aI58
aI6
aI63
aI51
aI11
aI44
aI91
aI25
aI96
aI3
aI95
aI95
aI70
aI78
aI51
aI70
aI89
aI52
aI6
aI72
aI10
aI14
aI76
aI25
aI13
aI26
aI48
aI69
aI76
aI76
aI8
aI22
aI65
aI4
aI25
aI61
aI11
aI82
aI41
aI81
aI64
aI79
aI23
aI84
aI7
aI80
aI44
aI4
aI95
aI39
aI45
aI90
aI50
aI14
aI51
aI16
aI16
aI94
aI0
aI97
aI33
aI11
aI62
aI8
aI89
aI3
aI4
aI56
aa(lp76
I51
aI72
aI45
aI84
aI98
aI6
aI2
aI28
aI92
aI25
aI52
aI6
aI85
aI63
aI68
aI92
aI18
aI85
aI72
aI38
aI7
aI53
aI50
aI20
aI33
aI38
aI37
aI5
aI72
aI67
aI98
aI95
aI58
aI47
aI63
aI32
aI2
aI74
aI33
aI42
aI32
aI8
aI33
aI62
aI92
aI41
aI46
aI88
aI47
aI67
aI18
aI11
aI9
aI69
aI27
aI19
aI5
aI47
aI11
aI36
aI1
aI53
aI82
aI16
aI29
aI95
aI8
aI46
aI26
aI65
aI78
aI86
aI91
aI15
aI85
aI39
aa(lp77
I42
aI56
aI85
aI58
aI74
aI32
aI16
aI55
aI58
aI26
aI30
aI98
aI79
aI51
aI5
aI98
aI44
aI67
aI58
aI89
aI88
aI82
aI36
aI77
aI84
aI2
aI12
aI41
aI95
aI17
aI45
aI94
aI10
aI8
aI67
aI91
aI19
aI26
aI49
aI21
aI93
aI86
aI73
aI50
aI80
aI43
aI40
aI65
aI91
aI0
aI36
aI6
aI92
aI99
aI46
aI91
aI52
aI86
aI74
aI72
aI97
aI39
aI27
aI48
aI47
aI16
aI55
aI86
aI4
aI48
aI18
aI74
aI51
aI62
aI17
aI35
aI17
aa(lp78
I57
aI14
aI81
aI7
aI31
aI50
aI9
aI33
aI48
aI80
aI46
aI39
aI13
aI68
aI17
aI48
aI14
aI3
aI20
aI6
aI30
aI18
aI79
aI66
aI33
aI80
aI85
aI11
aI63
aI12
aI80
aI86
aI94
aI13
aI31
aI57
aI64
aI11
aI19
aI44
aI4
aI89
aI45
aI49
aI67
aI31
aI93
aI95
aI51
aI27
aI38
aI89
aI77
aI2
aI89
aI36
aI49
aI94
aI47
aI60
aI31
aI94
aI16
aI61
aI41
aI47
aI87
aI29
aI41
aI32
aI90
aI80
aI0
aI74
aI6
aI66
aI71
aI20
aa(lp79
I19
aI70
aI37
aI24
aI54
aI35
aI38
aI55
aI24
aI85
aI30
aI6
aI69
aI2
aI92
aI12
aI69
aI7
aI79
aI80
aI70
aI74
aI9
aI16
aI3
aI22
aI47
aI89
aI5
aI28
aI87
aI12
aI60
aI37
aI7
aI1
aI74
aI30
aI96
aI38
aI94
aI83
aI16
aI92
aI51
aI52
aI33
aI93
aI85
aI83
aI78
aI79
aI35
aI59
aI45
aI72
aI87
aI94
aI5
aI3
aI32
aI50
aI18
aI37
aI43
aI37
aI74
aI69
aI83
aI33
aI68
aI97
aI5
aI7
aI16
aI75
aI46
aI92
aI31
aa(lp80
I27
aI53
aI36
aI40
aI1
aI81
aI49
aI71
aI94
aI15
aI83
aI63
aI63
aI17
aI51
aI2
aI56
aI36
aI34
aI81
aI48
aI17
aI3
aI93
aI74
aI62
aI16
aI78
aI96
aI98
aI76
aI15
aI53
aI14
aI97
aI38
aI70
aI96
aI24
aI33
aI44
aI43
aI41
aI10
aI76
aI0
aI14
aI30
aI94
aI74
aI93
aI68
aI17
aI41
aI37
aI70
aI61
aI59
aI22
aI85
aI99
aI88
aI26
aI65
aI93
aI15
aI78
aI60
aI99
aI66
aI99
aI67
aI4
aI70
aI95
aI45
aI14
aI31
aI75
aI6
aa(lp81
I10
aI63
aI80
aI7
aI81
aI40
aI19
aI74
aI74
aI10
aI90
aI26
aI46
aI44
aI38
aI79
aI28
aI91
aI57
aI74
aI80
aI76
aI84
aI27
aI70
aI1
aI12
aI8
aI71
aI60
aI11
aI80
aI70
aI44
aI5
aI32
aI24
aI6
aI98
aI20
aI65
aI86
aI74
aI73
aI3
aI27
aI67
aI28
aI95
aI64
aI19
aI69
aI85
aI71
aI45
aI95
aI7
aI91
aI65
aI1
aI11
aI8
aI41
aI42
aI83
aI97
aI97
aI78
aI33
aI37
aI79
aI32
aI87
aI93
aI64
aI52
aI62
aI54
aI35
aI7
aI13
aa(lp82
I3
aI62
aI92
aI23
aI85
aI95
aI97
aI99
aI17
aI20
aI19
aI85
aI60
aI17
aI95
aI54
aI34
aI47
aI67
aI50
aI68
aI52
aI66
aI2
aI42
aI64
aI6
aI56
aI33
aI64
aI16
aI9
aI16
aI63
aI29
aI27
aI58
aI68
aI45
aI8
aI45
aI36
aI22
aI79
aI72
aI49
aI72
aI57
aI37
aI4
aI75
aI92
aI89
aI73
aI47
aI3
aI84
aI35
aI76
aI52
aI44
aI45
aI77
aI48
aI8
aI9
aI20
aI23
aI19
aI57
aI4
aI65
aI60
aI73
aI95
aI15
aI32
aI7
aI77
aI38
aI53
aI81
aa(lp83
I61
aI8
aI46
aI64
aI89
aI49
aI16
aI32
aI97
aI21
aI23
aI66
aI52
aI4
aI43
aI35
aI37
aI25
aI40
aI67
aI46
aI62
aI10
aI20
aI4
aI52
aI34
aI35
aI10
aI93
aI28
aI50
aI49
aI91
aI21
aI81
aI82
aI94
aI93
aI81
aI83
aI8
aI87
aI17
aI58
aI46
aI83
aI7
aI73
aI72
aI86
aI85
aI41
aI29
aI79
aI11
aI41
aI22
aI33
aI11
aI40
aI38
aI70
aI58
aI89
aI27
aI24
aI34
aI83
aI61
aI29
aI42
aI48
aI91
aI28
aI76
aI4
aI72
aI0
aI30
aI31
aI87
aI47
aa(lp84
I26
aI42
aI91
aI3
aI86
aI82
aI3
aI91
aI84
aI44
aI3
aI99
aI65
aI52
aI59
aI37
aI50
aI23
aI37
aI96
aI58
aI26
aI3
aI38
aI40
aI66
aI53
aI26
aI5
aI33
aI82
aI71
aI40
aI58
aI19
aI76
aI68
aI86
aI78
aI18
aI47
aI86
aI89
aI31
aI25
aI33
aI30
aI17
aI70
aI97
aI28
aI74
aI2
aI19
aI26
aI42
aI16
aI2
aI26
aI81
aI10
aI99
aI53
aI44
aI53
aI85
aI12
aI21
aI42
aI26
aI19
aI76
aI58
aI88
aI73
aI78
aI86
aI83
aI82
aI89
aI24
aI87
aI55
aI30
aa(lp85
I94
aI25
aI92
aI3
aI1
aI84
aI69
aI39
aI79
aI93
aI69
aI58
aI23
aI0
aI86
aI89
aI55
aI66
aI57
aI54
aI63
aI25
aI14
aI79
aI76
aI81
aI42
aI6
aI35
aI97
aI5
aI17
aI28
aI71
aI67
aI14
aI93
aI28
aI48
aI61
aI10
aI36
aI41
aI32
aI1
aI84
aI61
aI72
aI92
aI34
aI39
aI44
aI71
aI21
aI77
aI77
aI32
aI0
aI48
aI71
aI58
aI80
aI56
aI8
aI44
aI6
aI19
aI8
aI38
aI43
aI16
aI90
aI8
aI39
aI65
aI63
aI37
aI12
aI45
aI21
aI49
aI33
aI10
aI51
aI19
aa(lp86
I39
aI46
aI65
aI18
aI45
aI85
aI2
aI67
aI12
aI7
aI62
aI12
aI82
aI42
aI61
aI12
aI4
aI14
aI55
aI11
aI41
aI35
aI49
aI82
aI81
aI13
aI21
aI69
aI13
aI65
aI46
aI90
aI75
aI61
aI71
aI77
aI86
aI89
aI96
aI11
aI62
aI88
aI6
aI33
aI69
aI46
aI97
aI39
aI85
aI99
aI94
aI95
aI88
aI40
aI37
aI84
aI38
aI62
aI27
aI41
aI23
aI80
aI72
aI79
aI92
aI47
aI14
aI94
aI77
aI29
aI23
aI0
aI55
aI38
aI67
aI66
aI99
aI88
aI33
aI23
aI82
aI66
aI23
aI65
aI64
aI75
aa(lp87
I89
aI41
aI40
aI48
aI90
aI51
aI90
aI13
aI70
aI15
aI97
aI76
aI75
aI24
aI24
aI84
aI21
aI25
aI97
aI7
aI19
aI13
aI33
aI75
aI64
aI12
aI25
aI91
aI75
aI77
aI15
aI19
aI84
aI93
aI40
aI29
aI98
aI66
aI75
aI53
aI63
aI35
aI1
aI8
aI48
aI70
aI64
aI38
aI90
aI99
aI43
aI21
aI28
aI14
aI95
aI15
aI40
aI39
aI34
aI6
aI78
aI60
aI89
aI59
aI72
aI25
aI70
aI12
aI42
aI11
aI37
aI3
aI31
aI63
aI30
aI22
aI45
aI46
aI85
aI11
aI72
aI21
aI38
aI97
aI40
aI30
aI70
aa(lp88
I72
aI79
aI71
aI62
aI96
aI51
aI65
aI49
aI45
aI94
aI94
aI96
aI84
aI18
aI53
aI82
aI47
aI96
aI10
aI73
aI31
aI55
aI55
aI91
aI88
aI37
aI51
aI76
aI91
aI8
aI24
aI0
aI72
aI14
aI22
aI98
aI78
aI99
aI24
aI60
aI56
aI40
aI45
aI8
aI47
aI55
aI69
aI47
aI86
aI92
aI79
aI21
aI54
aI76
aI49
aI49
aI22
aI42
aI91
aI3
aI30
aI23
aI23
aI97
aI18
aI17
aI17
aI23
aI20
aI78
aI82
aI16
aI71
aI69
aI93
aI23
aI77
aI69
aI67
aI64
aI26
aI80
aI32
aI82
aI35
aI36
aI59
aI17
aa(lp89
I93
aI78
aI72
aI20
aI44
aI41
aI16
aI30
aI79
aI3
aI90
aI29
aI64
aI87
aI39
aI21
aI37
aI80
aI75
aI3
aI3
aI7
aI54
aI31
aI98
aI19
aI26
aI87
aI0
aI32
aI80
aI99
aI25
aI14
aI31
aI58
aI74
aI72
aI75
aI54
aI99
aI73
aI25
aI11
aI57
aI5
aI58
aI84
aI7
aI21
aI45
aI38
aI46
aI5
aI79
aI34
aI53
aI23
aI17
aI98
aI90
aI22
aI87
aI66
aI53
aI11
aI44
aI22
aI71
aI85
aI28
aI58
aI39
aI73
aI42
aI6
aI24
aI99
aI53
aI54
aI65
aI37
aI26
aI22
aI26
aI81
aI46
aI14
aI36
aa(lp90
I17
aI56
aI88
aI21
aI30
aI61
aI31
aI74
aI82
aI60
aI53
aI79
aI2
aI96
aI32
aI66
aI66
aI41
aI84
aI44
aI55
aI46
aI54
aI39
aI89
aI35
aI61
aI57
aI30
aI20
aI92
aI8
aI61
aI40
aI1
aI96
aI45
aI94
aI7
aI17
aI46
aI10
aI59
aI20
aI0
aI34
aI81
aI94
aI56
aI52
aI35
aI98
aI37
aI93
aI5
aI18
aI91
aI57
aI50
aI99
aI74
aI84
aI52
aI59
aI52
aI13
aI86
aI85
aI92
aI46
aI2
aI56
aI72
aI82
aI4
aI14
aI28
aI18
aI10
aI83
aI4
aI90
aI38
aI82
aI34
aI71
aI78
aI56
aI17
aI36
aa(lp91
I68
aI90
aI41
aI88
aI22
aI48
aI79
aI72
aI0
aI23
aI52
aI16
aI88
aI26
aI7
aI72
aI21
aI66
aI87
aI88
aI7
aI2
aI85
aI43
aI34
aI20
aI68
aI41
aI61
aI65
aI67
aI46
aI96
aI54
aI51
aI26
aI0
aI22
aI32
aI21
aI45
aI12
aI95
aI47
aI49
aI63
aI50
aI93
aI91
aI54
aI7
aI80
aI72
aI97
aI57
aI78
aI25
aI63
aI46
aI84
aI31
aI28
aI56
aI73
aI53
aI18
aI17
aI58
aI40
aI38
aI32
aI52
aI3
aI61
aI76
aI92
aI12
aI92
aI3
aI4
aI41
aI90
aI34
aI87
aI31
aI50
aI66
aI81
aI16
aI42
aI97
aa(lp92
I52
aI3
aI2
aI44
aI25
aI96
aI22
aI25
aI93
aI1
aI2
aI68
aI2
aI92
aI97
aI5
aI1
aI27
aI72
aI79
aI61
aI41
aI69
aI66
aI46
aI74
aI27
aI98
aI72
aI19
aI3
aI67
aI26
aI85
aI93
aI79
aI46
aI76
aI53
aI94
aI24
aI27
aI31
aI2
aI86
aI19
aI15
aI50
aI17
aI17
aI62
aI46
aI70
aI41
aI23
aI63
aI47
aI91
aI40
aI4
aI27
aI55
aI33
aI38
aI88
aI62
aI46
aI35
aI2
aI98
aI66
aI20
aI71
aI90
aI8
aI23
aI5
aI1
aI96
aI61
aI57
aI7
aI68
aI92
aI99
aI81
aI24
aI25
aI0
aI10
aI82
aI4
aa(lp93
I37
aI7
aI81
aI21
aI54
aI53
aI46
aI11
aI45
aI8
aI11
aI38
aI54
aI60
aI91
aI26
aI22
aI1
aI32
aI85
aI99
aI54
aI90
aI80
aI26
aI89
aI43
aI42
aI83
aI74
aI1
aI77
aI51
aI68
aI82
aI91
aI39
aI23
aI23
aI6
aI83
aI54
aI39
aI84
aI28
aI36
aI83
aI78
aI96
aI7
aI89
aI77
aI7
aI26
aI34
aI86
aI65
aI53
aI13
aI51
aI88
aI44
aI67
aI84
aI21
aI10
aI91
aI68
aI68
aI12
aI40
aI27
aI9
aI16
aI52
aI16
aI57
aI41
aI40
aI43
aI44
aI85
aI73
aI99
aI78
aI24
aI94
aI88
aI88
aI19
aI32
aI53
aI3
aa(lp94
I95
aI67
aI27
aI28
aI54
aI57
aI99
aI92
aI64
aI73
aI73
aI5
aI65
aI3
aI49
aI6
aI48
aI19
aI71
aI36
aI94
aI38
aI13
aI29
aI60
aI49
aI1
aI35
aI35
aI88
aI22
aI90
aI4
aI69
aI94
aI48
aI77
aI92
aI81
aI16
aI80
aI45
aI33
aI66
aI73
aI57
aI29
aI30
aI30
aI30
aI1
aI7
aI40
aI61
aI61
aI7
aI9
aI33
aI74
aI4
aI67
aI28
aI72
aI66
aI88
aI1
aI39
aI99
aI57
aI55
aI7
aI92
aI54
aI77
aI51
aI79
aI19
aI91
aI39
aI78
aI15
aI89
aI52
aI85
aI19
aI58
aI89
aI77
aI92
aI60
aI5
aI63
aI77
aI73
aa(lp95
I97
aI24
aI88
aI22
aI0
aI42
aI62
aI83
aI1
aI22
aI43
aI88
aI39
aI41
aI25
aI53
aI57
aI97
aI55
aI63
aI40
aI16
aI78
aI16
aI62
aI69
aI93
aI39
aI53
aI37
aI32
aI70
aI27
aI12
aI12
aI53
aI62
aI86
aI99
aI43
aI50
aI14
aI83
aI40
aI21
aI10
aI84
aI58
aI14
aI20
aI93
aI58
aI75
aI85
aI57
aI56
aI21
aI82
aI82
aI36
aI82
aI36
aI5
aI75
aI17
aI61
aI54
aI5
aI12
aI49
aI58
aI65
aI66
aI37
aI3
aI74
aI52
aI15
aI64
aI75
aI43
aI87
aI83
aI18
aI60
aI7
aI50
aI72
aI63
aI40
aI21
aI53
aI9
aI95
aI39
aa(lp96
I22
aI23
aI23
aI79
aI18
aI66
aI16
aI18
aI31
aI73
aI6
aI58
aI62
aI20
aI69
aI69
aI76
aI43
aI55
aI77
aI17
aI51
aI30
aI8
aI52
aI47
aI73
aI22
aI64
aI32
aI14
aI79
aI68
aI86
aI99
aI15
aI17
aI4
aI98
aI91
aI76
aI14
aI33
aI82
aI52
aI5
aI48
aI74
aI55
aI82
aI21
aI5
aI99
aI80
aI88
aI9
aI93
aI69
aI65
aI76
aI58
aI29
aI70
aI11
aI7
aI36
aI55
aI45
aI77
aI43
aI90
aI3
aI1
aI62
aI79
aI73
aI73
aI13
aI12
aI76
aI94
aI92
aI96
aI73
aI51
aI2
aI66
aI50
aI42
aI90
aI61
aI34
aI86
aI66
aI30
aI27
aa(lp97
I73
aI55
aI44
aI49
aI19
aI99
aI32
aI8
aI14
aI40
aI20
aI74
aI4
aI22
aI27
aI9
aI38
aI34
aI2
aI96
aI46
aI59
aI58
aI1
aI18
aI37
aI64
aI5
aI4
aI86
aI26
aI96
aI65
aI33
aI21
aI66
aI45
aI41
aI76
aI78
aI67
aI77
aI97
aI73
aI35
aI72
aI29
aI46
aI59
aI75
aI37
aI82
aI31
aI96
aI36
aI97
aI48
aI41
aI58
aI69
aI18
aI48
aI79
aI59
aI2
aI9
aI28
aI96
aI57
aI67
aI73
aI78
aI5
aI98
aI61
aI37
aI43
aI40
aI71
aI59
aI76
aI84
aI46
aI55
aI91
aI32
aI47
aI43
aI9
aI46
aI75
aI22
aI23
aI69
aI28
aI48
aI93
aa(lp98
I96
aI8
aI42
aI43
aI37
aI19
aI96
aI51
aI63
aI13
aI23
aI18
aI42
aI12
aI34
aI97
aI40
aI64
aI8
aI70
aI50
aI86
aI22
aI41
aI66
aI68
aI4
aI10
aI56
aI66
aI17
aI14
aI89
aI28
aI82
aI55
aI78
aI5
aI55
aI56
aI42
aI23
aI75
aI50
aI39
aI20
aI33
aI10
aI1
aI21
aI41
aI49
aI50
aI61
aI26
aI7
aI6
aI14
aI53
aI31
aI75
aI48
aI15
aI46
aI73
aI31
aI70
aI39
aI0
aI21
aI63
aI49
aI59
aI85
aI31
aI46
aI0
aI3
aI21
aI13
aI97
aI9
aI21
aI1
aI99
aI8
aI42
aI98
aI64
aI71
aI93
aI59
aI26
aI40
aI57
aI2
aI44
aI35
aa(lp99
I98
aI82
aI90
aI7
aI92
aI99
aI79
aI79
aI68
aI15
aI74
aI8
aI86
aI1
aI97
aI50
aI66
aI92
aI13
aI69
aI63
aI63
aI89
aI18
aI53
aI63
aI89
aI1
aI46
aI80
aI18
aI55
aI6
aI92
aI4
aI10
aI15
aI99
aI17
aI52
aI27
aI10
aI35
aI59
aI69
aI22
aI86
aI79
aI56
aI63
aI44
aI97
aI15
aI29
aI73
aI65
aI23
aI71
aI72
aI39
aI77
aI50
aI74
aI98
aI8
aI99
aI64
aI97
aI91
aI38
aI37
aI75
aI87
aI24
aI80
aI6
aI22
aI29
aI30
aI69
aI3
aI8
aI13
aI62
aI5
aI32
aI65
aI88
aI86
aI75
aI27
aI77
aI19
aI39
aI55
aI26
aI2
aI23
aI79
aa(lp100
I29
aI16
aI25
aI0
aI53
aI87
aI37
aI95
aI56
aI48
aI8
aI62
aI0
aI65
aI62
aI49
aI1
aI90
aI39
aI73
aI14
aI55
aI37
aI56
aI69
aI51
aI88
aI43
aI95
aI25
aI65
aI76
aI23
aI58
aI4
aI45
aI73
aI54
aI7
aI80
aI97
aI28
aI9
aI28
aI53
aI30
aI98
aI89
aI63
aI55
aI23
aI69
aI64
aI74
aI42
aI28
aI25
aI5
aI36
aI41
aI19
aI70
aI49
aI75
aI17
aI69
aI92
aI33
aI19
aI75
aI5
aI39
aI20
aI27
aI39
aI62
aI96
aI69
aI54
aI22
aI38
aI23
aI20
aI91
aI7
aI12
aI21
aI66
aI77
aI40
aI35
aI12
aI96
aI38
aI54
aI19
aI80
aI42
aI62
aI95
aa.